; Function Attrs: mustprogress uwtable
define void @_ZN7rocksdb17PosixWritableFile5FsyncERKNS_9IOOptionsEPNS_14IODebugContextE(ptr noalias nocapture writeonly sret(%"class.rocksdb::IOStatus") align 8 %agg.result, ptr noundef nonnull align 8 dereferenceable(99) %this, ptr nocapture nonnull readnone align 8 %0, ptr nocapture readnone %1) unnamed_addr #0 align 2 personality ptr @__gxx_personality_v0 {
entry:
  %ref.tmp = alloca %"class.std::__cxx11::basic_string", align 8
  %ref.tmp3 = alloca %"class.std::allocator", align 1
  %fd_ = getelementptr inbounds i8, ptr %this, i64 76
  %2 = load i32, ptr %fd_, align 4
  %call = tail call i32 @fsync(i32 noundef %2)
  %cmp = icmp slt i32 %call, 0
  br i1 %cmp, label %if.then, label %if.end

if.then:                                          ; preds = %entry
  call void @_ZNSaIcEC1Ev(ptr noundef nonnull align 1 dereferenceable(1) %ref.tmp3) #25
  %call.i2 = invoke noundef ptr @_ZNSt7__cxx1112basic_stringIcSt11char_traitsIcESaIcEE13_M_local_dataEv(ptr noundef nonnull align 8 dereferenceable(32) %ref.tmp)
          to label %call.i.noexc unwind label %lpad

call.i.noexc:                                     ; preds = %if.then
  invoke void @_ZNSt7__cxx1112basic_stringIcSt11char_traitsIcESaIcEE12_Alloc_hiderC1EPcRKS3_(ptr noundef nonnull align 8 dereferenceable(8) %ref.tmp, ptr noundef %call.i2, ptr noundef nonnull align 1 dereferenceable(1) %ref.tmp3)
          to label %.noexc unwind label %lpad

.noexc:                                           ; preds = %call.i.noexc
  invoke void @_ZNSt7__cxx1112basic_stringIcSt11char_traitsIcESaIcEE12_M_constructIPKcEEvT_S8_St20forward_iterator_tag(ptr noundef nonnull align 8 dereferenceable(32) %ref.tmp, ptr noundef nonnull @.str.48, ptr noundef nonnull getelementptr inbounds ([12 x i8], ptr @.str.48, i64 0, i64 11))
          to label %invoke.cont unwind label %lpad.i

lpad.i:                                           ; preds = %.noexc
  %3 = landingpad { ptr, i32 }
          cleanup
  call void @_ZNSaIcED2Ev(ptr noundef nonnull align 1 dereferenceable(1) %ref.tmp) #25
  br label %ehcleanup

invoke.cont:                                      ; preds = %.noexc
  %filename_ = getelementptr inbounds i8, ptr %this, i64 40
  %call4 = tail call ptr @__errno_location() #30
  %4 = load i32, ptr %call4, align 4
  invoke void @_ZN7rocksdb7IOErrorERKNSt7__cxx1112basic_stringIcSt11char_traitsIcESaIcEEES7_i(ptr sret(%"class.rocksdb::IOStatus") align 8 %agg.result, ptr noundef nonnull align 8 dereferenceable(32) %ref.tmp, ptr noundef nonnull align 8 dereferenceable(32) %filename_, i32 noundef %4)
          to label %invoke.cont6 unwind label %lpad5

invoke.cont6:                                     ; preds = %invoke.cont
  call void @_ZNSt7__cxx1112basic_stringIcSt11char_traitsIcESaIcEED1Ev(ptr noundef nonnull align 8 dereferenceable(32) %ref.tmp) #25
  call void @_ZNSaIcED1Ev(ptr noundef nonnull align 1 dereferenceable(1) %ref.tmp3) #25
  br label %return

lpad:                                             ; preds = %call.i.noexc, %if.then
  %5 = landingpad { ptr, i32 }
          cleanup
  br label %ehcleanup

lpad5:                                            ; preds = %invoke.cont
  %6 = landingpad { ptr, i32 }
          cleanup
  call void @_ZNSt7__cxx1112basic_stringIcSt11char_traitsIcESaIcEED1Ev(ptr noundef nonnull align 8 dereferenceable(32) %ref.tmp) #25
  br label %ehcleanup

ehcleanup:                                        ; preds = %lpad, %lpad.i, %lpad5
  %.pn = phi { ptr, i32 } [ %6, %lpad5 ], [ %5, %lpad ], [ %3, %lpad.i ]
  call void @_ZNSaIcED1Ev(ptr noundef nonnull align 1 dereferenceable(1) %ref.tmp3) #25
  resume { ptr, i32 } %.pn

if.end:                                           ; preds = %entry
  store i8 0, ptr %agg.result, align 8, !alias.scope !162
  %subcode_.i.i.i.i = getelementptr inbounds i8, ptr %agg.result, i64 1
  store i8 0, ptr %subcode_.i.i.i.i, align 1, !alias.scope !162
  %sev_.i.i.i.i = getelementptr inbounds i8, ptr %agg.result, i64 2
  %state_.i.i.i.i = getelementptr inbounds i8, ptr %agg.result, i64 8
  store ptr null, ptr %state_.i.i.i.i, align 8, !alias.scope !162
  store i32 0, ptr %sev_.i.i.i.i, align 2, !alias.scope !162
  br label %return

return:                                           ; preds = %if.end, %invoke.cont6
  ret void
}